; ModuleID = '10/1707.c'
source_filename = "10/1707.c"
target datalayout = "e-m:e-p270:32:32-p271:32:32-p272:64:64-i64:64-f80:128-n8:16:32:64-S128"
target triple = "x86_64-pc-linux-gnu"

@.str = private unnamed_addr constant [3 x i8] c"%d\00", align 1

; Function Attrs: noinline nounwind uwtable
define dso_local i32 @main() #0 {
  %1 = alloca i32, align 4
  %2 = alloca i32, align 4
  %3 = alloca i32, align 4
  %4 = alloca [25 x i32], align 16
  %5 = alloca i32, align 4
  store i32 0, i32* %1, align 4
  %6 = call i32 (i8*, ...) @__isoc99_scanf(i8* getelementptr inbounds ([3 x i8], [3 x i8]* @.str, i64 0, i64 0), i32* %3)
  store i32 0, i32* %2, align 4
  br label %7

7:                                                ; preds = %16, %0
  %8 = load i32, i32* %2, align 4
  %9 = load i32, i32* %3, align 4
  %10 = icmp slt i32 %8, %9
  br i1 %10, label %11, label %19

11:                                               ; preds = %7
  %12 = load i32, i32* %2, align 4
  %13 = sext i32 %12 to i64
  %14 = getelementptr inbounds [25 x i32], [25 x i32]* %4, i64 0, i64 %13
  %15 = call i32 (i8*, ...) @__isoc99_scanf(i8* getelementptr inbounds ([3 x i8], [3 x i8]* @.str, i64 0, i64 0), i32* %14)
  br label %16

16:                                               ; preds = %11
  %17 = load i32, i32* %2, align 4
  %18 = add nsw i32 %17, 1
  store i32 %18, i32* %2, align 4
  br label %7

19:                                               ; preds = %7
  %20 = getelementptr inbounds [25 x i32], [25 x i32]* %4, i64 0, i64 0
  %21 = call i32 @fff(i32* %20, i32 1)
  store i32 %21, i32* %5, align 4
  store i32 2, i32* %2, align 4
  br label %22

22:                                               ; preds = %38, %19
  %23 = load i32, i32* %2, align 4
  %24 = load i32, i32* %3, align 4
  %25 = add nsw i32 %24, 1
  %26 = icmp slt i32 %23, %25
  br i1 %26, label %27, label %41

27:                                               ; preds = %22
  %28 = load i32, i32* %5, align 4
  %29 = getelementptr inbounds [25 x i32], [25 x i32]* %4, i64 0, i64 0
  %30 = load i32, i32* %2, align 4
  %31 = call i32 @fff(i32* %29, i32 %30)
  %32 = icmp slt i32 %28, %31
  br i1 %32, label %33, label %37

33:                                               ; preds = %27
  %34 = getelementptr inbounds [25 x i32], [25 x i32]* %4, i64 0, i64 0
  %35 = load i32, i32* %2, align 4
  %36 = call i32 @fff(i32* %34, i32 %35)
  store i32 %36, i32* %5, align 4
  br label %37

37:                                               ; preds = %33, %27
  br label %38

38:                                               ; preds = %37
  %39 = load i32, i32* %2, align 4
  %40 = add nsw i32 %39, 1
  store i32 %40, i32* %2, align 4
  br label %22

41:                                               ; preds = %22
  %42 = load i32, i32* %5, align 4
  %43 = call i32 (i8*, ...) @printf(i8* getelementptr inbounds ([3 x i8], [3 x i8]* @.str, i64 0, i64 0), i32 %42)
  %44 = load i32, i32* %1, align 4
  ret i32 %44
}

declare dso_local i32 @__isoc99_scanf(i8*, ...) #1

; Function Attrs: noinline nounwind uwtable
define dso_local i32 @fff(i32* %0, i32 %1) #0 {
  %3 = alloca i32*, align 8
  %4 = alloca i32, align 4
  %5 = alloca i32, align 4
  %6 = alloca i32, align 4
  store i32* %0, i32** %3, align 8
  store i32 %1, i32* %4, align 4
  store i32 0, i32* %5, align 4
  %7 = load i32, i32* %4, align 4
  %8 = icmp eq i32 %7, 0
  br i1 %8, label %9, label %10

9:                                                ; preds = %2
  store i32 0, i32* %5, align 4
  br label %10

10:                                               ; preds = %9, %2
  %11 = load i32, i32* %4, align 4
  %12 = icmp eq i32 %11, 1
  br i1 %12, label %13, label %14

13:                                               ; preds = %10
  store i32 1, i32* %5, align 4
  br label %14

14:                                               ; preds = %13, %10
  %15 = load i32, i32* %4, align 4
  %16 = icmp sgt i32 %15, 1
  br i1 %16, label %17, label %54

17:                                               ; preds = %14
  store i32 1, i32* %5, align 4
  store i32 1, i32* %6, align 4
  br label %18

18:                                               ; preds = %50, %17
  %19 = load i32, i32* %6, align 4
  %20 = load i32, i32* %4, align 4
  %21 = icmp slt i32 %19, %20
  br i1 %21, label %22, label %53

22:                                               ; preds = %18
  %23 = load i32*, i32** %3, align 8
  %24 = load i32, i32* %4, align 4
  %25 = sub nsw i32 %24, 1
  %26 = sext i32 %25 to i64
  %27 = getelementptr inbounds i32, i32* %23, i64 %26
  %28 = load i32, i32* %27, align 4
  %29 = load i32*, i32** %3, align 8
  %30 = load i32, i32* %6, align 4
  %31 = sub nsw i32 %30, 1
  %32 = sext i32 %31 to i64
  %33 = getelementptr inbounds i32, i32* %29, i64 %32
  %34 = load i32, i32* %33, align 4
  %35 = icmp sle i32 %28, %34
  br i1 %35, label %36, label %49

36:                                               ; preds = %22
  %37 = load i32*, i32** %3, align 8
  %38 = load i32, i32* %6, align 4
  %39 = call i32 @fff(i32* %37, i32 %38)
  %40 = add nsw i32 %39, 1
  %41 = load i32, i32* %5, align 4
  %42 = icmp sgt i32 %40, %41
  br i1 %42, label %43, label %48

43:                                               ; preds = %36
  %44 = load i32*, i32** %3, align 8
  %45 = load i32, i32* %6, align 4
  %46 = call i32 @fff(i32* %44, i32 %45)
  %47 = add nsw i32 %46, 1
  store i32 %47, i32* %5, align 4
  br label %48

48:                                               ; preds = %43, %36
  br label %49

49:                                               ; preds = %48, %22
  br label %50

50:                                               ; preds = %49
  %51 = load i32, i32* %6, align 4
  %52 = add nsw i32 %51, 1
  store i32 %52, i32* %6, align 4
  br label %18

53:                                               ; preds = %18
  br label %54

54:                                               ; preds = %53, %14
  %55 = load i32, i32* %5, align 4
  ret i32 %55
}

declare dso_local i32 @printf(i8*, ...) #1


!llvm.module.flags = !{!0}
!llvm.ident = !{!1}

!0 = !{i32 1, !"wchar_size", i32 4}
!1 = !{!"clang version 10.0.0-4ubuntu1 "}
