; ModuleID = 'source-C-CXX/9/1707.c'
source_filename = "source-C-CXX/9/1707.c"
target datalayout = "e-m:e-p270:32:32-p271:32:32-p272:64:64-i64:64-f80:128-n8:16:32:64-S128"
target triple = "x86_64-pc-linux-gnu"

@.str = private unnamed_addr constant [3 x i8] c"%d\00", align 1

; Function Attrs: nofree nounwind sspstrong uwtable
define dso_local i32 @main() local_unnamed_addr #0 {
  %1 = alloca i32, align 4
  %2 = alloca [25 x i32], align 16
  %3 = bitcast i32* %1 to i8*
  call void @llvm.lifetime.start.p0i8(i64 4, i8* nonnull %3) #4
  %4 = bitcast [25 x i32]* %2 to i8*
  call void @llvm.lifetime.start.p0i8(i64 100, i8* nonnull %4) #4
  %5 = call i32 (i8*, ...) @__isoc99_scanf(i8* getelementptr inbounds ([3 x i8], [3 x i8]* @.str, i64 0, i64 0), i32* nonnull %1)
  %6 = load i32, i32* %1, align 4, !tbaa !5
  %7 = icmp sgt i32 %6, 0
  br i1 %7, label %8, label %27

8:                                                ; preds = %0, %8
  %9 = phi i64 [ %12, %8 ], [ 0, %0 ]
  %10 = getelementptr inbounds [25 x i32], [25 x i32]* %2, i64 0, i64 %9
  %11 = call i32 (i8*, ...) @__isoc99_scanf(i8* getelementptr inbounds ([3 x i8], [3 x i8]* @.str, i64 0, i64 0), i32* nonnull %10)
  %12 = add nuw nsw i64 %9, 1
  %13 = load i32, i32* %1, align 4, !tbaa !5
  %14 = sext i32 %13 to i64
  %15 = icmp slt i64 %12, %14
  br i1 %15, label %8, label %16, !llvm.loop !9

16:                                               ; preds = %8
  %17 = getelementptr inbounds [25 x i32], [25 x i32]* %2, i64 0, i64 0
  %18 = icmp slt i32 %13, 2
  br i1 %18, label %27, label %19

19:                                               ; preds = %16, %19
  %20 = phi i32 [ %24, %19 ], [ 1, %16 ]
  %21 = phi i32 [ %25, %19 ], [ 2, %16 ]
  %22 = call i32 @fff(i32* nonnull %17, i32 %21)
  %23 = icmp slt i32 %20, %22
  %24 = select i1 %23, i32 %22, i32 %20
  %25 = add nuw i32 %21, 1
  %26 = icmp eq i32 %21, %13
  br i1 %26, label %27, label %19, !llvm.loop !11

27:                                               ; preds = %19, %0, %16
  %28 = phi i32 [ 1, %16 ], [ 1, %0 ], [ %24, %19 ]
  %29 = call i32 (i8*, ...) @printf(i8* nonnull dereferenceable(1) getelementptr inbounds ([3 x i8], [3 x i8]* @.str, i64 0, i64 0), i32 %28)
  call void @llvm.lifetime.end.p0i8(i64 100, i8* nonnull %4) #4
  call void @llvm.lifetime.end.p0i8(i64 4, i8* nonnull %3) #4
  ret i32 0
}

; Function Attrs: argmemonly mustprogress nofree nosync nounwind willreturn
declare void @llvm.lifetime.start.p0i8(i64 immarg, i8* nocapture) #1

; Function Attrs: nofree nounwind
declare noundef i32 @__isoc99_scanf(i8* nocapture noundef readonly, ...) local_unnamed_addr #2

; Function Attrs: nofree nosync nounwind readonly sspstrong uwtable
define dso_local i32 @fff(i32* %0, i32 %1) local_unnamed_addr #3 {
  %3 = icmp eq i32 %1, 1
  %4 = zext i1 %3 to i32
  %5 = icmp sgt i32 %1, 1
  br i1 %5, label %6, label %29

6:                                                ; preds = %2
  %7 = add nsw i32 %1, -1
  %8 = zext i32 %7 to i64
  %9 = getelementptr inbounds i32, i32* %0, i64 %8
  %10 = load i32, i32* %9, align 4, !tbaa !5
  %11 = zext i32 %1 to i64
  br label %12

12:                                               ; preds = %6, %25
  %13 = phi i64 [ 1, %6 ], [ %27, %25 ]
  %14 = phi i32 [ 1, %6 ], [ %26, %25 ]
  %15 = add nsw i64 %13, -1
  %16 = getelementptr inbounds i32, i32* %0, i64 %15
  %17 = load i32, i32* %16, align 4, !tbaa !5
  %18 = icmp sgt i32 %10, %17
  br i1 %18, label %25, label %19

19:                                               ; preds = %12
  %20 = trunc i64 %13 to i32
  %21 = tail call i32 @fff(i32* nonnull %0, i32 %20)
  %22 = icmp slt i32 %21, %14
  %23 = add nsw i32 %21, 1
  %24 = select i1 %22, i32 %14, i32 %23
  br label %25

25:                                               ; preds = %19, %12
  %26 = phi i32 [ %14, %12 ], [ %24, %19 ]
  %27 = add nuw nsw i64 %13, 1
  %28 = icmp eq i64 %27, %11
  br i1 %28, label %29, label %12, !llvm.loop !12

29:                                               ; preds = %25, %2
  %30 = phi i32 [ %4, %2 ], [ %26, %25 ]
  ret i32 %30
}

; Function Attrs: nofree nounwind
declare noundef i32 @printf(i8* nocapture noundef readonly, ...) local_unnamed_addr #2

; Function Attrs: argmemonly mustprogress nofree nosync nounwind willreturn
declare void @llvm.lifetime.end.p0i8(i64 immarg, i8* nocapture) #1


!llvm.module.flags = !{!0, !1, !2, !3}
!llvm.ident = !{!4}

!0 = !{i32 1, !"wchar_size", i32 4}
!1 = !{i32 7, !"PIC Level", i32 2}
!2 = !{i32 7, !"PIE Level", i32 2}
!3 = !{i32 7, !"uwtable", i32 1}
!4 = !{!"clang version 13.0.0"}
!5 = !{!6, !6, i64 0}
!6 = !{!"int", !7, i64 0}
!7 = !{!"omnipotent char", !8, i64 0}
!8 = !{!"Simple C/C++ TBAA"}
!9 = distinct !{!9, !10}
!10 = !{!"llvm.loop.mustprogress"}
!11 = distinct !{!11, !10}
!12 = distinct !{!12, !10}
